Archive member included to satisfy reference by file (symbol)

/opt/microchip/xc32/v3.01/bin/bin/../../lib/gcc/pic32c/8.3.1/../../../../pic32c/lib/thumb/v8-m.base/nofp/libpic32c.a(data_init.o)
                              build/default/production/_ext/1171490990/startup_xc32.o (__pic32c_data_initialization)
/opt/microchip/xc32/v3.01/bin/bin/../../lib/gcc/pic32c/8.3.1/thumb/v8-m.base/nofp/libgcc.a(cmse_nonsecure_call.o)
                              build/default/production/_ext/1360937237/main.o (__gnu_cmse_nonsecure_call)
/opt/microchip/xc32/v3.01/bin/bin/../../lib/gcc/pic32c/8.3.1/../../../../pic32c/lib/thumb/v8-m.base/nofp/libc_nano.a(lib_a-init.o)
                              build/default/production/_ext/1171490990/startup_xc32.o (__libc_init_array)
/opt/microchip/xc32/v3.01/bin/bin/../../lib/gcc/pic32c/8.3.1/../../../../pic32c/lib/thumb/v8-m.base/nofp/libc_nano.a(lib_a-memcpy-stub.o)
                              build/default/production/_ext/1593096446/plib_nvmctrl.o (memcpy)

Microchip PIC32 Memory-Usage Report

ROM Program-Memory Usage
section                    address  length [bytes]      (dec)  Description
-------                 ----------  -------------------------  -----------
.vectors                         0           0xf4         244   
.text                         0xf4           0x30          48  App's exec code 
.text.CLOCK_Initialize       0x124           0xf0         240   
.text.__pic32c_data_ini      0x214           0x94         148   
.text.main                   0x2a8           0x64         100   
.text.TC0_TimerInitiali      0x30c           0x54          84   
.text.Reset_Handler          0x360           0x54          84   
.text                        0x3b4           0x50          80  App's exec code 
.text.__libc_init_array      0x404           0x50          80   
.dinit                       0x454           0x40          64   
.text.PM_Initialize          0x494           0x3a          58   
.text.TC0_TimerInterrup      0x4ce           0x3a          58   
.text                        0x508           0x32          50  App's exec code 
.text.EVSYS_Initialize       0x53a            0x2           2   
.text.NVIC_Initialize        0x53c           0x2c          44   
.text.SYS_Initialize         0x568           0x2c          44   
.text.TC0_TimerStart         0x594           0x20          32   
.text.PORT_Initialize        0x5b4           0x16          22   
.text.NVMCTRL_Initializ      0x5ca           0x12          18   
.text.TC0_TimerCallback      0x5dc            0xe          14   
.text.TC0_CH0_TimerInte      0x5ea            0xe          14   
.text.Dummy_Handler          0x5f8            0x2           2   
.text.NonMaskableInt_Ha      0x5fa            0x2           2   
.text.HardFault_Handler      0x5fc            0x2           2   
.text.Dummy_App_Func         0x5fe            0x2           2   
.gnu.sgstubs                0x7e00            0x8           8   
      Total ROM used  :       0x608        1544  4.7% of 0x8000
        --------------------------------------------------------------------------
         Total Program Memory used  :       0x608        1544  4.7% of 0x8000
        --------------------------------------------------------------------------


RAM Data-Memory Usage
section                    address  length [bytes]      (dec)  Description
-------                 ----------  -------------------------  -----------
.bss                    0x20000000           0x1c          28  Uninitialized data 
.bss.TC0_CallbackObject 0x2000001c            0x8           8   
.bss                    0x20000024            0x4           4  Uninitialized data 
.bss.LEDstate           0x20000028            0x1           1   
         Total RAM used  :        0x29          41  0.5% of 0x2000
        --------------------------------------------------------------------------
            Total Data Memory used  :        0x29          41  0.5% of 0x2000
        --------------------------------------------------------------------------


Dynamic Data-Memory Reservation
section                    address  length [bytes]      (dec)  Description
-------                 ----------  -------------------------  -----------
heap                    0x20000030          0x200         512  Reserved for heap 
stack                   0x20000248         0x1da8        7592  Reserved for stack 

        --------------------------------------------------------------------------

Discarded input sections

 .text          0x00000000        0x0 /opt/microchip/xc32/v3.01/bin/bin/../../lib/gcc/pic32c/8.3.1/thumb/v8-m.base/nofp/crti.o
 .data          0x00000000        0x0 /opt/microchip/xc32/v3.01/bin/bin/../../lib/gcc/pic32c/8.3.1/thumb/v8-m.base/nofp/crti.o
 .bss           0x00000000        0x0 /opt/microchip/xc32/v3.01/bin/bin/../../lib/gcc/pic32c/8.3.1/thumb/v8-m.base/nofp/crti.o
 .xc_stack_usage.hdr
                0x00000000        0xe /opt/microchip/xc32/v3.01/bin/bin/../../lib/gcc/pic32c/8.3.1/thumb/v8-m.base/nofp/crti.o
 .xc_stack_usage
                0x00000000       0x26 /opt/microchip/xc32/v3.01/bin/bin/../../lib/gcc/pic32c/8.3.1/thumb/v8-m.base/nofp/crti.o
 .data          0x00000000        0x4 /opt/microchip/xc32/v3.01/bin/bin/../../lib/gcc/pic32c/8.3.1/thumb/v8-m.base/nofp/crtbegin.o
 .xc_stack_usage
                0x00000000       0x3c /opt/microchip/xc32/v3.01/bin/bin/../../lib/gcc/pic32c/8.3.1/thumb/v8-m.base/nofp/crtbegin.o
 .xc_stack_usage.hdr
                0x00000000        0xe /opt/microchip/xc32/v3.01/bin/bin/../../lib/gcc/pic32c/8.3.1/thumb/v8-m.base/nofp/crtbegin.o
 .text          0x00000000        0x0 build/default/production/_ext/1984496892/plib_clock.o
 .data          0x00000000        0x0 build/default/production/_ext/1984496892/plib_clock.o
 .bss           0x00000000        0x0 build/default/production/_ext/1984496892/plib_clock.o
 .text          0x00000000        0x0 build/default/production/_ext/1986646378/plib_evsys.o
 .data          0x00000000        0x0 build/default/production/_ext/1986646378/plib_evsys.o
 .bss           0x00000000        0x0 build/default/production/_ext/1986646378/plib_evsys.o
 .text          0x00000000        0x0 build/default/production/_ext/1865468468/plib_nvic.o
 .data          0x00000000        0x0 build/default/production/_ext/1865468468/plib_nvic.o
 .bss           0x00000000        0x0 build/default/production/_ext/1865468468/plib_nvic.o
 .text.NVIC_INT_Enable
                0x00000000        0x8 build/default/production/_ext/1865468468/plib_nvic.o
 .text.NVIC_INT_Disable
                0x00000000       0x12 build/default/production/_ext/1865468468/plib_nvic.o
 .text.NVIC_INT_Restore
                0x00000000       0x12 build/default/production/_ext/1865468468/plib_nvic.o
 .text          0x00000000        0x0 build/default/production/_ext/1593096446/plib_nvmctrl.o
 .data          0x00000000        0x0 build/default/production/_ext/1593096446/plib_nvmctrl.o
 .bss           0x00000000        0x0 build/default/production/_ext/1593096446/plib_nvmctrl.o
 .text.NVMCTRL_CacheInvalidate
                0x00000000       0x14 build/default/production/_ext/1593096446/plib_nvmctrl.o
 .text.NVMCTRL_Read
                0x00000000       0x10 build/default/production/_ext/1593096446/plib_nvmctrl.o
 .text.NVMCTRL_PageWrite
                0x00000000       0x50 build/default/production/_ext/1593096446/plib_nvmctrl.o
 .text.NVMCTRL_RowErase
                0x00000000       0x38 build/default/production/_ext/1593096446/plib_nvmctrl.o
 .text.NVMCTRL_PageBufferWrite
                0x00000000       0x48 build/default/production/_ext/1593096446/plib_nvmctrl.o
 .text.NVMCTRL_PageBufferCommit
                0x00000000       0x1c build/default/production/_ext/1593096446/plib_nvmctrl.o
 .text.NVMCTRL_ErrorGet
                0x00000000       0x28 build/default/production/_ext/1593096446/plib_nvmctrl.o
 .text.NVMCTRL_IsBusy
                0x00000000       0x16 build/default/production/_ext/1593096446/plib_nvmctrl.o
 .text.NVMCTRL_RegionLock
                0x00000000       0x16 build/default/production/_ext/1593096446/plib_nvmctrl.o
 .text.NVMCTRL_RegionUnlock
                0x00000000       0x16 build/default/production/_ext/1593096446/plib_nvmctrl.o
 .text.NVMCTRL_SecureRegionLock
                0x00000000       0x16 build/default/production/_ext/1593096446/plib_nvmctrl.o
 .text.NVMCTRL_SecureRegionUnlock
                0x00000000       0x16 build/default/production/_ext/1593096446/plib_nvmctrl.o
 .text.NVMCTRL_DataScrambleKeySet
                0x00000000       0x10 build/default/production/_ext/1593096446/plib_nvmctrl.o
 .text.NVMCTRL_DataScrambleEnable
                0x00000000       0x36 build/default/production/_ext/1593096446/plib_nvmctrl.o
 .text          0x00000000        0x0 build/default/production/_ext/829342769/plib_pm.o
 .data          0x00000000        0x0 build/default/production/_ext/829342769/plib_pm.o
 .bss           0x00000000        0x0 build/default/production/_ext/829342769/plib_pm.o
 .text.PM_IdleModeEnter
                0x00000000       0x1e build/default/production/_ext/829342769/plib_pm.o
 .text.PM_StandbyModeEnter
                0x00000000       0x1e build/default/production/_ext/829342769/plib_pm.o
 .text.PM_OffModeEnter
                0x00000000       0x20 build/default/production/_ext/829342769/plib_pm.o
 .text.PM_ConfigurePerformanceLevel
                0x00000000       0x50 build/default/production/_ext/829342769/plib_pm.o
 .text          0x00000000        0x0 build/default/production/_ext/1865521619/plib_port.o
 .data          0x00000000        0x0 build/default/production/_ext/1865521619/plib_port.o
 .bss           0x00000000        0x0 build/default/production/_ext/1865521619/plib_port.o
 .text.PORT_GroupRead
                0x00000000        0x4 build/default/production/_ext/1865521619/plib_port.o
 .text.PORT_GroupWrite
                0x00000000        0xc build/default/production/_ext/1865521619/plib_port.o
 .text.PORT_GroupLatchRead
                0x00000000        0x4 build/default/production/_ext/1865521619/plib_port.o
 .text.PORT_GroupSet
                0x00000000        0x4 build/default/production/_ext/1865521619/plib_port.o
 .text.PORT_GroupClear
                0x00000000        0x4 build/default/production/_ext/1865521619/plib_port.o
 .text.PORT_GroupToggle
                0x00000000        0x4 build/default/production/_ext/1865521619/plib_port.o
 .text.PORT_GroupInputEnable
                0x00000000        0x4 build/default/production/_ext/1865521619/plib_port.o
 .text.PORT_GroupOutputEnable
                0x00000000        0x4 build/default/production/_ext/1865521619/plib_port.o
 .text.PORT_PinPeripheralFunctionConfig
                0x00000000       0x48 build/default/production/_ext/1865521619/plib_port.o
 .text.PORT_PinGPIOConfig
                0x00000000       0x20 build/default/production/_ext/1865521619/plib_port.o
 .text          0x00000000        0x0 build/default/production/_ext/829342655/plib_tc0.o
 .data          0x00000000        0x0 build/default/production/_ext/829342655/plib_tc0.o
 .bss           0x00000000        0x0 build/default/production/_ext/829342655/plib_tc0.o
 .text.TC0_TimerStop
                0x00000000       0x20 build/default/production/_ext/829342655/plib_tc0.o
 .text.TC0_TimerFrequencyGet
                0x00000000        0x6 build/default/production/_ext/829342655/plib_tc0.o
 .text.TC0_TimerCommandSet
                0x00000000       0x1e build/default/production/_ext/829342655/plib_tc0.o
 .text.TC0_Timer16bitCounterGet
                0x00000000       0x40 build/default/production/_ext/829342655/plib_tc0.o
 .text.TC0_Timer16bitCounterSet
                0x00000000       0x1c build/default/production/_ext/829342655/plib_tc0.o
 .text.TC0_Timer16bitPeriodSet
                0x00000000       0x1c build/default/production/_ext/829342655/plib_tc0.o
 .text.TC0_Timer16bitPeriodGet
                0x00000000        0xe build/default/production/_ext/829342655/plib_tc0.o
 .text          0x00000000        0x0 build/default/production/_ext/163028504/xc32_monitor.o
 .data          0x00000000        0x0 build/default/production/_ext/163028504/xc32_monitor.o
 .bss           0x00000000        0x0 build/default/production/_ext/163028504/xc32_monitor.o
 .text._mon_getc
                0x00000000        0x4 build/default/production/_ext/163028504/xc32_monitor.o
 .text._mon_putc
                0x00000000        0x2 build/default/production/_ext/163028504/xc32_monitor.o
 .debug_info    0x00000000      0x2d2 build/default/production/_ext/163028504/xc32_monitor.o
 .debug_abbrev  0x00000000       0x80 build/default/production/_ext/163028504/xc32_monitor.o
 .debug_loc     0x00000000       0x25 build/default/production/_ext/163028504/xc32_monitor.o
 .debug_aranges
                0x00000000       0x28 build/default/production/_ext/163028504/xc32_monitor.o
 .debug_ranges  0x00000000       0x18 build/default/production/_ext/163028504/xc32_monitor.o
 .debug_line    0x00000000       0x76 build/default/production/_ext/163028504/xc32_monitor.o
 .debug_str     0x00000000        0x0 build/default/production/_ext/163028504/xc32_monitor.o
 .comment       0x00000000       0x54 build/default/production/_ext/163028504/xc32_monitor.o
 .debug_frame   0x00000000       0x30 build/default/production/_ext/163028504/xc32_monitor.o
 .ARM.attributes
                0x00000000       0x30 build/default/production/_ext/163028504/xc32_monitor.o
 .text          0x00000000        0x0 build/default/production/_ext/1171490990/interrupts.o
 .data          0x00000000        0x0 build/default/production/_ext/1171490990/interrupts.o
 .bss           0x00000000        0x0 build/default/production/_ext/1171490990/interrupts.o
 .text          0x00000000        0x0 build/default/production/_ext/1171490990/initialization.o
 .data          0x00000000        0x0 build/default/production/_ext/1171490990/initialization.o
 .bss           0x00000000        0x0 build/default/production/_ext/1171490990/initialization.o
 .text          0x00000000        0x0 build/default/production/_ext/1171490990/exceptions.o
 .data          0x00000000        0x0 build/default/production/_ext/1171490990/exceptions.o
 .bss           0x00000000        0x0 build/default/production/_ext/1171490990/exceptions.o
 .text.DebugMonitor_Handler
                0x00000000        0x2 build/default/production/_ext/1171490990/exceptions.o
 .text.MemoryManagement_Handler
                0x00000000        0x2 build/default/production/_ext/1171490990/exceptions.o
 .text.BusFault_Handler
                0x00000000        0x2 build/default/production/_ext/1171490990/exceptions.o
 .text.UsageFault_Handler
                0x00000000        0x2 build/default/production/_ext/1171490990/exceptions.o
 .text          0x00000000        0x0 build/default/production/_ext/1171490990/startup_xc32.o
 .data          0x00000000        0x0 build/default/production/_ext/1171490990/startup_xc32.o
 .bss           0x00000000        0x0 build/default/production/_ext/1171490990/startup_xc32.o
 .text          0x00000000        0x0 build/default/production/_ext/1171490990/libc_syscalls.o
 .data          0x00000000        0x0 build/default/production/_ext/1171490990/libc_syscalls.o
 .bss           0x00000000        0x0 build/default/production/_ext/1171490990/libc_syscalls.o
 .text._exit    0x00000000        0x2 build/default/production/_ext/1171490990/libc_syscalls.o
 .debug_info    0x00000000      0xf26 build/default/production/_ext/1171490990/libc_syscalls.o
 .debug_abbrev  0x00000000      0x1cc build/default/production/_ext/1171490990/libc_syscalls.o
 .debug_loc     0x00000000       0x15 build/default/production/_ext/1171490990/libc_syscalls.o
 .debug_aranges
                0x00000000       0x20 build/default/production/_ext/1171490990/libc_syscalls.o
 .debug_ranges  0x00000000       0x10 build/default/production/_ext/1171490990/libc_syscalls.o
 .debug_line    0x00000000      0x11f build/default/production/_ext/1171490990/libc_syscalls.o
 .debug_str     0x00000000        0xe build/default/production/_ext/1171490990/libc_syscalls.o
 .comment       0x00000000       0x54 build/default/production/_ext/1171490990/libc_syscalls.o
 .debug_frame   0x00000000       0x20 build/default/production/_ext/1171490990/libc_syscalls.o
 .ARM.attributes
                0x00000000       0x30 build/default/production/_ext/1171490990/libc_syscalls.o
 .text          0x00000000        0x0 build/default/production/_ext/1903470166/nonsecure_entry.o
 .data          0x00000000        0x0 build/default/production/_ext/1903470166/nonsecure_entry.o
 .bss           0x00000000        0x0 build/default/production/_ext/1903470166/nonsecure_entry.o
 .text          0x00000000        0x0 build/default/production/_ext/1360937237/main.o
 .data          0x00000000        0x0 build/default/production/_ext/1360937237/main.o
 .bss           0x00000000        0x0 build/default/production/_ext/1360937237/main.o
 .text          0x00000000        0x0 /opt/microchip/xc32/v3.01/bin/bin/../../lib/gcc/pic32c/8.3.1/../../../../pic32c/lib/thumb/v8-m.base/nofp/libpic32c.a(data_init.o)
 .data          0x00000000        0x0 /opt/microchip/xc32/v3.01/bin/bin/../../lib/gcc/pic32c/8.3.1/../../../../pic32c/lib/thumb/v8-m.base/nofp/libpic32c.a(data_init.o)
 .xc_stack_usage
                0x00000000       0x2a /opt/microchip/xc32/v3.01/bin/bin/../../lib/gcc/pic32c/8.3.1/../../../../pic32c/lib/thumb/v8-m.base/nofp/libpic32c.a(data_init.o)
 .xc_stack_usage.hdr
                0x00000000        0xe /opt/microchip/xc32/v3.01/bin/bin/../../lib/gcc/pic32c/8.3.1/../../../../pic32c/lib/thumb/v8-m.base/nofp/libpic32c.a(data_init.o)
 .data          0x00000000        0x0 /opt/microchip/xc32/v3.01/bin/bin/../../lib/gcc/pic32c/8.3.1/thumb/v8-m.base/nofp/libgcc.a(cmse_nonsecure_call.o)
 .bss           0x00000000        0x0 /opt/microchip/xc32/v3.01/bin/bin/../../lib/gcc/pic32c/8.3.1/thumb/v8-m.base/nofp/libgcc.a(cmse_nonsecure_call.o)
 .xc_stack_usage.hdr
                0x00000000        0xe /opt/microchip/xc32/v3.01/bin/bin/../../lib/gcc/pic32c/8.3.1/thumb/v8-m.base/nofp/libgcc.a(cmse_nonsecure_call.o)
 .xc_stack_usage
                0x00000000       0x27 /opt/microchip/xc32/v3.01/bin/bin/../../lib/gcc/pic32c/8.3.1/thumb/v8-m.base/nofp/libgcc.a(cmse_nonsecure_call.o)
 .text          0x00000000        0x0 /opt/microchip/xc32/v3.01/bin/bin/../../lib/gcc/pic32c/8.3.1/../../../../pic32c/lib/thumb/v8-m.base/nofp/libc_nano.a(lib_a-init.o)
 .data          0x00000000        0x0 /opt/microchip/xc32/v3.01/bin/bin/../../lib/gcc/pic32c/8.3.1/../../../../pic32c/lib/thumb/v8-m.base/nofp/libc_nano.a(lib_a-init.o)
 .bss           0x00000000        0x0 /opt/microchip/xc32/v3.01/bin/bin/../../lib/gcc/pic32c/8.3.1/../../../../pic32c/lib/thumb/v8-m.base/nofp/libc_nano.a(lib_a-init.o)
 .xc_stack_usage
                0x00000000       0x1f /opt/microchip/xc32/v3.01/bin/bin/../../lib/gcc/pic32c/8.3.1/../../../../pic32c/lib/thumb/v8-m.base/nofp/libc_nano.a(lib_a-init.o)
 .xc_stack_usage.hdr
                0x00000000        0xe /opt/microchip/xc32/v3.01/bin/bin/../../lib/gcc/pic32c/8.3.1/../../../../pic32c/lib/thumb/v8-m.base/nofp/libc_nano.a(lib_a-init.o)
 .text          0x00000000        0x0 /opt/microchip/xc32/v3.01/bin/bin/../../lib/gcc/pic32c/8.3.1/../../../../pic32c/lib/thumb/v8-m.base/nofp/libc_nano.a(lib_a-memcpy-stub.o)
 .data          0x00000000        0x0 /opt/microchip/xc32/v3.01/bin/bin/../../lib/gcc/pic32c/8.3.1/../../../../pic32c/lib/thumb/v8-m.base/nofp/libc_nano.a(lib_a-memcpy-stub.o)
 .bss           0x00000000        0x0 /opt/microchip/xc32/v3.01/bin/bin/../../lib/gcc/pic32c/8.3.1/../../../../pic32c/lib/thumb/v8-m.base/nofp/libc_nano.a(lib_a-memcpy-stub.o)
 .xc_stack_usage
                0x00000000       0x14 /opt/microchip/xc32/v3.01/bin/bin/../../lib/gcc/pic32c/8.3.1/../../../../pic32c/lib/thumb/v8-m.base/nofp/libc_nano.a(lib_a-memcpy-stub.o)
 .text.memcpy   0x00000000       0x12 /opt/microchip/xc32/v3.01/bin/bin/../../lib/gcc/pic32c/8.3.1/../../../../pic32c/lib/thumb/v8-m.base/nofp/libc_nano.a(lib_a-memcpy-stub.o)
 .xc_stack_usage.hdr
                0x00000000        0xe /opt/microchip/xc32/v3.01/bin/bin/../../lib/gcc/pic32c/8.3.1/../../../../pic32c/lib/thumb/v8-m.base/nofp/libc_nano.a(lib_a-memcpy-stub.o)
 .comment       0x00000000       0x54 /opt/microchip/xc32/v3.01/bin/bin/../../lib/gcc/pic32c/8.3.1/../../../../pic32c/lib/thumb/v8-m.base/nofp/libc_nano.a(lib_a-memcpy-stub.o)
 .ARM.attributes
                0x00000000       0x30 /opt/microchip/xc32/v3.01/bin/bin/../../lib/gcc/pic32c/8.3.1/../../../../pic32c/lib/thumb/v8-m.base/nofp/libc_nano.a(lib_a-memcpy-stub.o)
 .text          0x00000000        0x0 /opt/microchip/xc32/v3.01/bin/bin/../../lib/gcc/pic32c/8.3.1/thumb/v8-m.base/nofp/crtend.o
 .data          0x00000000        0x0 /opt/microchip/xc32/v3.01/bin/bin/../../lib/gcc/pic32c/8.3.1/thumb/v8-m.base/nofp/crtend.o
 .bss           0x00000000        0x0 /opt/microchip/xc32/v3.01/bin/bin/../../lib/gcc/pic32c/8.3.1/thumb/v8-m.base/nofp/crtend.o
 .eh_frame      0x00000000        0x4 /opt/microchip/xc32/v3.01/bin/bin/../../lib/gcc/pic32c/8.3.1/thumb/v8-m.base/nofp/crtend.o
 .xc_stack_usage.hdr
                0x00000000        0xe /opt/microchip/xc32/v3.01/bin/bin/../../lib/gcc/pic32c/8.3.1/thumb/v8-m.base/nofp/crtend.o
 .comment       0x00000000       0x54 /opt/microchip/xc32/v3.01/bin/bin/../../lib/gcc/pic32c/8.3.1/thumb/v8-m.base/nofp/crtend.o
 .ARM.attributes
                0x00000000       0x30 /opt/microchip/xc32/v3.01/bin/bin/../../lib/gcc/pic32c/8.3.1/thumb/v8-m.base/nofp/crtend.o
 .text          0x00000000        0x0 /opt/microchip/xc32/v3.01/bin/bin/../../lib/gcc/pic32c/8.3.1/thumb/v8-m.base/nofp/crtn.o
 .data          0x00000000        0x0 /opt/microchip/xc32/v3.01/bin/bin/../../lib/gcc/pic32c/8.3.1/thumb/v8-m.base/nofp/crtn.o
 .bss           0x00000000        0x0 /opt/microchip/xc32/v3.01/bin/bin/../../lib/gcc/pic32c/8.3.1/thumb/v8-m.base/nofp/crtn.o
 .xc_stack_usage.hdr
                0x00000000        0xe /opt/microchip/xc32/v3.01/bin/bin/../../lib/gcc/pic32c/8.3.1/thumb/v8-m.base/nofp/crtn.o

Memory Configuration

Name             Origin             Length             Attributes
rom              0x00000000         0x00008000         xrl
rom_nsc          0x00007e00         0x00000200         xrl
ram              0x20000000         0x00002000         xw !r
config_00804000  0x00804000         0x00000004
config_0080C000  0x0080c000         0x00000004
config_00804004  0x00804004         0x00000004
config_00804008  0x00804008         0x00000004
config_0080C0EC  0x0080c0ec         0x00000004
config_0080400C  0x0080400c         0x00000004
config_0080C010  0x0080c010         0x00000004
config_00804018  0x00804018         0x00000004
config_00804014  0x00804014         0x00000004
config_0080C018  0x0080c018         0x00000004
config_0080C004  0x0080c004         0x00000004
config_0080C01C  0x0080c01c         0x00000004
config_0080C020  0x0080c020         0x00000004
config_0080C024  0x0080c024         0x00000004
config_0080C028  0x0080c028         0x00000004
config_0080401C  0x0080401c         0x00000004
config_0080C02C  0x0080c02c         0x00000004
config_0080C030  0x0080c030         0x00000004
config_0080C008  0x0080c008         0x00000004
config_0080C034  0x0080c034         0x00000004
config_0080C038  0x0080c038         0x00000004
config_0080C03C  0x0080c03c         0x00000004
config_0080C040  0x0080c040         0x00000004
config_0080C0E0  0x0080c0e0         0x00000004
config_0080C044  0x0080c044         0x00000004
config_0080C048  0x0080c048         0x00000004
config_0080C04C  0x0080c04c         0x00000004
config_0080C050  0x0080c050         0x00000004
config_0080C054  0x0080c054         0x00000004
config_0080C058  0x0080c058         0x00000004
config_0080C0E4  0x0080c0e4         0x00000004
config_0080C05C  0x0080c05c         0x00000004
config_0080C060  0x0080c060         0x00000004
config_00804010  0x00804010         0x00000004
config_0080C064  0x0080c064         0x00000004
config_0080C068  0x0080c068         0x00000004
config_0080C06C  0x0080c06c         0x00000004
config_0080C0F0  0x0080c0f0         0x00000004
config_0080C0E8  0x0080c0e8         0x00000004
config_0080C0F4  0x0080c0f4         0x00000004
config_0080C0F8  0x0080c0f8         0x00000004
config_0080C014  0x0080c014         0x00000004
config_0080C0FC  0x0080c0fc         0x00000004
*default*        0x00000000         0xffffffff

Linker script and memory map

LOAD /opt/microchip/xc32/v3.01/bin/bin/../../lib/gcc/pic32c/8.3.1/thumb/v8-m.base/nofp/crti.o
LOAD /opt/microchip/xc32/v3.01/bin/bin/../../lib/gcc/pic32c/8.3.1/thumb/v8-m.base/nofp/crtbegin.o
LOAD build/default/production/_ext/1984496892/plib_clock.o
LOAD build/default/production/_ext/1986646378/plib_evsys.o
LOAD build/default/production/_ext/1865468468/plib_nvic.o
LOAD build/default/production/_ext/1593096446/plib_nvmctrl.o
LOAD build/default/production/_ext/829342769/plib_pm.o
LOAD build/default/production/_ext/1865521619/plib_port.o
LOAD build/default/production/_ext/829342655/plib_tc0.o
LOAD build/default/production/_ext/163028504/xc32_monitor.o
LOAD build/default/production/_ext/1171490990/interrupts.o
LOAD build/default/production/_ext/1171490990/initialization.o
LOAD build/default/production/_ext/1171490990/exceptions.o
LOAD build/default/production/_ext/1171490990/startup_xc32.o
LOAD build/default/production/_ext/1171490990/libc_syscalls.o
LOAD build/default/production/_ext/1903470166/nonsecure_entry.o
LOAD build/default/production/_ext/1360937237/main.o
                0x00000001                __MPLAB_BUILD = 0x1
                0x00008000                __rom_end = (ORIGIN (rom) + LENGTH (rom))
                0x00008000                __rom_nsc_end = (ORIGIN (rom_nsc) + LENGTH (rom_nsc))
                0x20002000                __ram_end = (ORIGIN (ram) + LENGTH (ram))

.config_00804000
                0x00804000        0x4
 *(.config_00804000)
 .config_00804000
                0x00804000        0x4 build/default/production/_ext/1171490990/initialization.o
                0x00804000                __config_00804000

.config_0080C000
                0x0080c000        0x4
 *(.config_0080C000)
 .config_0080C000
                0x0080c000        0x4 build/default/production/_ext/1171490990/initialization.o
                0x0080c000                __config_0080C000

.config_00804004
                0x00804004        0x4
 *(.config_00804004)
 .config_00804004
                0x00804004        0x4 build/default/production/_ext/1171490990/initialization.o
                0x00804004                __config_00804004

.config_00804008
                0x00804008        0x4
 *(.config_00804008)
 .config_00804008
                0x00804008        0x4 build/default/production/_ext/1171490990/initialization.o
                0x00804008                __config_00804008

.config_0080C0EC
                0x0080c0ec        0x4
 *(.config_0080C0EC)
 .config_0080C0EC
                0x0080c0ec        0x4 build/default/production/_ext/1171490990/initialization.o
                0x0080c0ec                __config_0080C0EC

.config_0080400C
                0x0080400c        0x4
 *(.config_0080400C)
 .config_0080400C
                0x0080400c        0x4 build/default/production/_ext/1171490990/initialization.o
                0x0080400c                __config_0080400C

.config_0080C010
                0x0080c010        0x4
 *(.config_0080C010)
 .config_0080C010
                0x0080c010        0x4 build/default/production/_ext/1171490990/initialization.o
                0x0080c010                __config_0080C010

.config_00804018
                0x00804018        0x4
 *(.config_00804018)
 .config_00804018
                0x00804018        0x4 build/default/production/_ext/1171490990/initialization.o
                0x00804018                __config_00804018

.config_00804014
                0x00804014        0x4
 *(.config_00804014)
 .config_00804014
                0x00804014        0x4 build/default/production/_ext/1171490990/initialization.o
                0x00804014                __config_00804014

.config_0080C018
                0x0080c018        0x4
 *(.config_0080C018)
 .config_0080C018
                0x0080c018        0x4 build/default/production/_ext/1171490990/initialization.o
                0x0080c018                __config_0080C018

.config_0080C004
                0x0080c004        0x4
 *(.config_0080C004)
 .config_0080C004
                0x0080c004        0x4 build/default/production/_ext/1171490990/initialization.o
                0x0080c004                __config_0080C004

.config_0080C01C
                0x0080c01c        0x4
 *(.config_0080C01C)
 .config_0080C01C
                0x0080c01c        0x4 build/default/production/_ext/1171490990/initialization.o
                0x0080c01c                __config_0080C01C

.config_0080C020
                0x0080c020        0x4
 *(.config_0080C020)
 .config_0080C020
                0x0080c020        0x4 build/default/production/_ext/1171490990/initialization.o
                0x0080c020                __config_0080C020

.config_0080C024
                0x0080c024        0x4
 *(.config_0080C024)
 .config_0080C024
                0x0080c024        0x4 build/default/production/_ext/1171490990/initialization.o
                0x0080c024                __config_0080C024

.config_0080C028
                0x0080c028        0x4
 *(.config_0080C028)
 .config_0080C028
                0x0080c028        0x4 build/default/production/_ext/1171490990/initialization.o
                0x0080c028                __config_0080C028

.config_0080401C
                0x0080401c        0x4
 *(.config_0080401C)
 .config_0080401C
                0x0080401c        0x4 build/default/production/_ext/1171490990/initialization.o
                0x0080401c                __config_0080401C

.config_0080C02C
                0x0080c02c        0x4
 *(.config_0080C02C)
 .config_0080C02C
                0x0080c02c        0x4 build/default/production/_ext/1171490990/initialization.o
                0x0080c02c                __config_0080C02C

.config_0080C030
                0x0080c030        0x4
 *(.config_0080C030)
 .config_0080C030
                0x0080c030        0x4 build/default/production/_ext/1171490990/initialization.o
                0x0080c030                __config_0080C030

.config_0080C008
                0x0080c008        0x4
 *(.config_0080C008)
 .config_0080C008
                0x0080c008        0x4 build/default/production/_ext/1171490990/initialization.o
                0x0080c008                __config_0080C008

.config_0080C034
                0x0080c034        0x4
 *(.config_0080C034)
 .config_0080C034
                0x0080c034        0x4 build/default/production/_ext/1171490990/initialization.o
                0x0080c034                __config_0080C034

.config_0080C038
                0x0080c038        0x4
 *(.config_0080C038)
 .config_0080C038
                0x0080c038        0x4 build/default/production/_ext/1171490990/initialization.o
                0x0080c038                __config_0080C038

.config_0080C03C
                0x0080c03c        0x4
 *(.config_0080C03C)
 .config_0080C03C
                0x0080c03c        0x4 build/default/production/_ext/1171490990/initialization.o
                0x0080c03c                __config_0080C03C

.config_0080C040
                0x0080c040        0x4
 *(.config_0080C040)
 .config_0080C040
                0x0080c040        0x4 build/default/production/_ext/1171490990/initialization.o
                0x0080c040                __config_0080C040

.config_0080C0E0
                0x0080c0e0        0x4
 *(.config_0080C0E0)
 .config_0080C0E0
                0x0080c0e0        0x4 build/default/production/_ext/1171490990/initialization.o
                0x0080c0e0                __config_0080C0E0

.config_0080C044
                0x0080c044        0x4
 *(.config_0080C044)
 .config_0080C044
                0x0080c044        0x4 build/default/production/_ext/1171490990/initialization.o
                0x0080c044                __config_0080C044

.config_0080C048
                0x0080c048        0x4
 *(.config_0080C048)
 .config_0080C048
                0x0080c048        0x4 build/default/production/_ext/1171490990/initialization.o
                0x0080c048                __config_0080C048

.config_0080C04C
                0x0080c04c        0x4
 *(.config_0080C04C)
 .config_0080C04C
                0x0080c04c        0x4 build/default/production/_ext/1171490990/initialization.o
                0x0080c04c                __config_0080C04C

.config_0080C050
                0x0080c050        0x4
 *(.config_0080C050)
 .config_0080C050
                0x0080c050        0x4 build/default/production/_ext/1171490990/initialization.o
                0x0080c050                __config_0080C050

.config_0080C054
                0x0080c054        0x4
 *(.config_0080C054)
 .config_0080C054
                0x0080c054        0x4 build/default/production/_ext/1171490990/initialization.o
                0x0080c054                __config_0080C054

.config_0080C058
                0x0080c058        0x4
 *(.config_0080C058)
 .config_0080C058
                0x0080c058        0x4 build/default/production/_ext/1171490990/initialization.o
                0x0080c058                __config_0080C058

.config_0080C0E4
                0x0080c0e4        0x4
 *(.config_0080C0E4)
 .config_0080C0E4
                0x0080c0e4        0x4 build/default/production/_ext/1171490990/initialization.o
                0x0080c0e4                __config_0080C0E4

.config_0080C05C
                0x0080c05c        0x4
 *(.config_0080C05C)
 .config_0080C05C
                0x0080c05c        0x4 build/default/production/_ext/1171490990/initialization.o
                0x0080c05c                __config_0080C05C

.config_0080C060
                0x0080c060        0x4
 *(.config_0080C060)
 .config_0080C060
                0x0080c060        0x4 build/default/production/_ext/1171490990/initialization.o
                0x0080c060                __config_0080C060

.config_00804010
                0x00804010        0x4
 *(.config_00804010)
 .config_00804010
                0x00804010        0x4 build/default/production/_ext/1171490990/initialization.o
                0x00804010                __config_00804010

.config_0080C064
                0x0080c064        0x4
 *(.config_0080C064)
 .config_0080C064
                0x0080c064        0x4 build/default/production/_ext/1171490990/initialization.o
                0x0080c064                __config_0080C064

.config_0080C068
                0x0080c068        0x4
 *(.config_0080C068)
 .config_0080C068
                0x0080c068        0x4 build/default/production/_ext/1171490990/initialization.o
                0x0080c068                __config_0080C068

.config_0080C06C
                0x0080c06c        0x4
 *(.config_0080C06C)
 .config_0080C06C
                0x0080c06c        0x4 build/default/production/_ext/1171490990/initialization.o
                0x0080c06c                __config_0080C06C

.config_0080C0F0
                0x0080c0f0        0x4
 *(.config_0080C0F0)
 .config_0080C0F0
                0x0080c0f0        0x4 build/default/production/_ext/1171490990/initialization.o
                0x0080c0f0                __config_0080C0F0

.config_0080C0E8
                0x0080c0e8        0x4
 *(.config_0080C0E8)
 .config_0080C0E8
                0x0080c0e8        0x4 build/default/production/_ext/1171490990/initialization.o
                0x0080c0e8                __config_0080C0E8

.config_0080C0F4
                0x0080c0f4        0x4
 *(.config_0080C0F4)
 .config_0080C0F4
                0x0080c0f4        0x4 build/default/production/_ext/1171490990/initialization.o
                0x0080c0f4                __config_0080C0F4

.config_0080C0F8
                0x0080c0f8        0x4
 *(.config_0080C0F8)
 .config_0080C0F8
                0x0080c0f8        0x4 build/default/production/_ext/1171490990/initialization.o
                0x0080c0f8                __config_0080C0F8

.config_0080C014
                0x0080c014        0x4
 *(.config_0080C014)
 .config_0080C014
                0x0080c014        0x4 build/default/production/_ext/1171490990/initialization.o
                0x0080c014                __config_0080C014

.config_0080C0FC
                0x0080c0fc        0x4
 *(.config_0080C0FC)
 .config_0080C0FC
                0x0080c0fc        0x4 build/default/production/_ext/1171490990/initialization.o
                0x0080c0fc                __config_0080C0FC

.vectors        0x00000000       0xf4
                0x00000000                . = ALIGN (0x4)
                0x00000000                _sfixed = .
 *(.vectors .vectors.* .vectors_default .vectors_default.*)
 .vectors       0x00000000       0xf4 build/default/production/_ext/1171490990/interrupts.o
                0x00000000                exception_table
 *(.isr_vector)
 *(.reset*)
 *(.after_vectors)

.text           0x000000f4       0x30
                0x000000f4                . = ALIGN (0x4)
 *(.glue_7t)
 .glue_7t       0x000000f4        0x0 linker stubs
 *(.glue_7)
 .glue_7        0x000000f4        0x0 linker stubs
 *veneer.o(.text.*)
 *nonsecure_entry.o(.text.*)
 .text.secure_add
                0x000000f4       0x10 build/default/production/_ext/1903470166/nonsecure_entry.o
                0x000000f4                __acle_se_secure_add
 *(.gnu.linkonce.r.*)
 *(.ARM.extab* .gnu.linkonce.armextab.*)
                0x00000104                . = ALIGN (0x4)
 *(.init)
 .init          0x00000104        0x4 /opt/microchip/xc32/v3.01/bin/bin/../../lib/gcc/pic32c/8.3.1/thumb/v8-m.base/nofp/crti.o
                0x00000104                _init
 .init          0x00000108        0x8 /opt/microchip/xc32/v3.01/bin/bin/../../lib/gcc/pic32c/8.3.1/thumb/v8-m.base/nofp/crtn.o
                0x00000110                . = ALIGN (0x4)
                0x00000110                __preinit_array_start = .
 *(.preinit_array)
                0x00000110                __preinit_array_end = .
                0x00000110                . = ALIGN (0x4)
                0x00000110                __init_array_start = .
 *(SORT_BY_NAME(.init_array.*))
 *(.init_array)
 .init_array    0x00000110        0x4 /opt/microchip/xc32/v3.01/bin/bin/../../lib/gcc/pic32c/8.3.1/thumb/v8-m.base/nofp/crtbegin.o
                0x00000114                __init_array_end = .
                0x00000114                . = ALIGN (0x4)
 *crtbegin.o(.ctors)
 *(EXCLUDE_FILE(*crtend.o) .ctors)
 *(SORT_BY_NAME(.ctors.*))
 *crtend.o(.ctors)
                0x00000114                . = ALIGN (0x4)
 *(.fini)
 .fini          0x00000114        0x4 /opt/microchip/xc32/v3.01/bin/bin/../../lib/gcc/pic32c/8.3.1/thumb/v8-m.base/nofp/crti.o
                0x00000114                _fini
 .fini          0x00000118        0x8 /opt/microchip/xc32/v3.01/bin/bin/../../lib/gcc/pic32c/8.3.1/thumb/v8-m.base/nofp/crtn.o
                0x00000120                . = ALIGN (0x4)
                0x00000120                __fini_array_start = .
 *(.fini_array)
 .fini_array    0x00000120        0x4 /opt/microchip/xc32/v3.01/bin/bin/../../lib/gcc/pic32c/8.3.1/thumb/v8-m.base/nofp/crtbegin.o
 *(SORT_BY_NAME(.fini_array.*))
                0x00000124                __fini_array_end = .
 *crtbegin.o(.dtors)
 *(EXCLUDE_FILE(*crtend.o) .dtors)
 *(SORT_BY_NAME(.dtors.*))
 *crtend.o(.dtors)
                0x00000124                . = ALIGN (0x4)
                0x00000124                _efixed = .
                [!provide]                PROVIDE (__exidx_start = .)

.ARM.exidx
 *(.ARM.exidx* .gnu.linkonce.armexidx.*)
                [!provide]                PROVIDE (__exidx_end = .)
                0x00000124                . = ALIGN (0x4)
                0x00000124                _etext = .
                0x00000124                . = ALIGN (0x4)

.gnu.sgstubs    0x00007e00        0x8
                0x00007e00                _ssgstubs = .
 .gnu.sgstubs.__stub
                0x00007e00        0x8 linker stubs
                0x00007e00                secure_add

.bss            0x20000000        0x0
                0x20000000                . = ALIGN (0x4)
                0x20000000                __bss_start__ = .
                0x20000000                _sbss = .
                0x20000000                _szero = .
 *(COMMON)
                0x20000000                . = ALIGN (0x4)
                0x20000000                __bss_end__ = .
                0x20000000                _ebss = .
                0x20000000                _ezero = .
                0x20000000                . = ALIGN (0x4)
                0x20000000                _end = .
                0x20001fff                _ram_end_ = ((ORIGIN (ram) + LENGTH (ram)) - 0x1)
                0x00000200                _min_heap_size = 0x200
START GROUP
LOAD /opt/microchip/xc32/v3.01/bin/bin/../../lib/gcc/pic32c/8.3.1/../../../../pic32c/lib/thumb/v8-m.base/nofp/libpic32c.a
LOAD /opt/microchip/xc32/v3.01/bin/bin/../../lib/gcc/pic32c/8.3.1/thumb/v8-m.base/nofp/libgcc.a
LOAD /opt/microchip/xc32/v3.01/bin/bin/../../lib/gcc/pic32c/8.3.1/../../../../pic32c/lib/thumb/v8-m.base/nofp/libm_nano.a
LOAD /opt/microchip/xc32/v3.01/bin/bin/../../lib/gcc/pic32c/8.3.1/../../../../pic32c/lib/thumb/v8-m.base/nofp/libc_nano.a
END GROUP
LOAD /opt/microchip/xc32/v3.01/bin/bin/../../lib/gcc/pic32c/8.3.1/thumb/v8-m.base/nofp/crtend.o
LOAD /opt/microchip/xc32/v3.01/bin/bin/../../lib/gcc/pic32c/8.3.1/thumb/v8-m.base/nofp/crtn.o
OUTPUT(dist/default/production/LEDBlinkSecure_Secure.X.production.elf elf32-littlearm)
LOAD stack
LOAD data_init

.ARM.attributes
                0x00000000       0x2c
 .ARM.attributes
                0x00000000       0x22 /opt/microchip/xc32/v3.01/bin/bin/../../lib/gcc/pic32c/8.3.1/thumb/v8-m.base/nofp/crti.o
 .ARM.attributes
                0x00000022       0x30 /opt/microchip/xc32/v3.01/bin/bin/../../lib/gcc/pic32c/8.3.1/thumb/v8-m.base/nofp/crtbegin.o
 .ARM.attributes
                0x00000052       0x30 build/default/production/_ext/1984496892/plib_clock.o
 .ARM.attributes
                0x00000082       0x30 build/default/production/_ext/1986646378/plib_evsys.o
 .ARM.attributes
                0x000000b2       0x30 build/default/production/_ext/1865468468/plib_nvic.o
 .ARM.attributes
                0x000000e2       0x30 build/default/production/_ext/1593096446/plib_nvmctrl.o
 .ARM.attributes
                0x00000112       0x30 build/default/production/_ext/829342769/plib_pm.o
 .ARM.attributes
                0x00000142       0x30 build/default/production/_ext/1865521619/plib_port.o
 .ARM.attributes
                0x00000172       0x30 build/default/production/_ext/829342655/plib_tc0.o
 .ARM.attributes
                0x000001a2       0x30 build/default/production/_ext/1171490990/interrupts.o
 .ARM.attributes
                0x000001d2       0x30 build/default/production/_ext/1171490990/initialization.o
 .ARM.attributes
                0x00000202       0x30 build/default/production/_ext/1171490990/exceptions.o
 .ARM.attributes
                0x00000232       0x30 build/default/production/_ext/1171490990/startup_xc32.o
 .ARM.attributes
                0x00000262       0x30 build/default/production/_ext/1903470166/nonsecure_entry.o
 .ARM.attributes
                0x00000292       0x30 build/default/production/_ext/1360937237/main.o
 .ARM.attributes
                0x000002c2       0x30 /opt/microchip/xc32/v3.01/bin/bin/../../lib/gcc/pic32c/8.3.1/../../../../pic32c/lib/thumb/v8-m.base/nofp/libpic32c.a(data_init.o)
 .ARM.attributes
                0x000002f2       0x20 /opt/microchip/xc32/v3.01/bin/bin/../../lib/gcc/pic32c/8.3.1/thumb/v8-m.base/nofp/libgcc.a(cmse_nonsecure_call.o)
 .ARM.attributes
                0x00000312       0x30 /opt/microchip/xc32/v3.01/bin/bin/../../lib/gcc/pic32c/8.3.1/../../../../pic32c/lib/thumb/v8-m.base/nofp/libc_nano.a(lib_a-init.o)
 .ARM.attributes
                0x00000342       0x22 /opt/microchip/xc32/v3.01/bin/bin/../../lib/gcc/pic32c/8.3.1/thumb/v8-m.base/nofp/crtn.o

.comment        0x00000000       0x53
 .comment       0x00000000       0x53 /opt/microchip/xc32/v3.01/bin/bin/../../lib/gcc/pic32c/8.3.1/thumb/v8-m.base/nofp/crtbegin.o
                                 0x54 (size before relaxing)
 .comment       0x00000053       0x54 build/default/production/_ext/1984496892/plib_clock.o
 .comment       0x00000053       0x54 build/default/production/_ext/1986646378/plib_evsys.o
 .comment       0x00000053       0x54 build/default/production/_ext/1865468468/plib_nvic.o
 .comment       0x00000053       0x54 build/default/production/_ext/1593096446/plib_nvmctrl.o
 .comment       0x00000053       0x54 build/default/production/_ext/829342769/plib_pm.o
 .comment       0x00000053       0x54 build/default/production/_ext/1865521619/plib_port.o
 .comment       0x00000053       0x54 build/default/production/_ext/829342655/plib_tc0.o
 .comment       0x00000053       0x54 build/default/production/_ext/1171490990/interrupts.o
 .comment       0x00000053       0x54 build/default/production/_ext/1171490990/initialization.o
 .comment       0x00000053       0x54 build/default/production/_ext/1171490990/exceptions.o
 .comment       0x00000053       0x54 build/default/production/_ext/1171490990/startup_xc32.o
 .comment       0x00000053       0x54 build/default/production/_ext/1903470166/nonsecure_entry.o
 .comment       0x00000053       0x54 build/default/production/_ext/1360937237/main.o
 .comment       0x00000053       0x54 /opt/microchip/xc32/v3.01/bin/bin/../../lib/gcc/pic32c/8.3.1/../../../../pic32c/lib/thumb/v8-m.base/nofp/libpic32c.a(data_init.o)
 .comment       0x00000053       0x54 /opt/microchip/xc32/v3.01/bin/bin/../../lib/gcc/pic32c/8.3.1/../../../../pic32c/lib/thumb/v8-m.base/nofp/libc_nano.a(lib_a-init.o)

.debug_info     0x00000000     0x866d
 .debug_info    0x00000000      0xa7f build/default/production/_ext/1984496892/plib_clock.o
 .debug_info    0x00000a7f      0x341 build/default/production/_ext/1986646378/plib_evsys.o
 .debug_info    0x00000dc0      0xc2a build/default/production/_ext/1865468468/plib_nvic.o
 .debug_info    0x000019ea     0x18c3 build/default/production/_ext/1593096446/plib_nvmctrl.o
 .debug_info    0x000032ad      0x5b0 build/default/production/_ext/829342769/plib_pm.o
 .debug_info    0x0000385d      0xc76 build/default/production/_ext/1865521619/plib_port.o
 .debug_info    0x000044d3      0xcd6 build/default/production/_ext/829342655/plib_tc0.o
 .debug_info    0x000051a9      0xb17 build/default/production/_ext/1171490990/interrupts.o
 .debug_info    0x00005cc0      0x7ae build/default/production/_ext/1171490990/initialization.o
 .debug_info    0x0000646e      0x3fa build/default/production/_ext/1171490990/exceptions.o
 .debug_info    0x00006868      0x4e8 build/default/production/_ext/1171490990/startup_xc32.o
 .debug_info    0x00006d50      0x2a1 build/default/production/_ext/1903470166/nonsecure_entry.o
 .debug_info    0x00006ff1     0x1386 build/default/production/_ext/1360937237/main.o
 .debug_info    0x00008377      0x2d0 /opt/microchip/xc32/v3.01/bin/bin/../../lib/gcc/pic32c/8.3.1/../../../../pic32c/lib/thumb/v8-m.base/nofp/libpic32c.a(data_init.o)
 .debug_info    0x00008647       0x26 /opt/microchip/xc32/v3.01/bin/bin/../../lib/gcc/pic32c/8.3.1/thumb/v8-m.base/nofp/libgcc.a(cmse_nonsecure_call.o)

.debug_abbrev   0x00000000     0x109e
 .debug_abbrev  0x00000000      0x104 build/default/production/_ext/1984496892/plib_clock.o
 .debug_abbrev  0x00000104       0x3b build/default/production/_ext/1986646378/plib_evsys.o
 .debug_abbrev  0x0000013f      0x1d0 build/default/production/_ext/1865468468/plib_nvic.o
 .debug_abbrev  0x0000030f      0x2e5 build/default/production/_ext/1593096446/plib_nvmctrl.o
 .debug_abbrev  0x000005f4       0xec build/default/production/_ext/829342769/plib_pm.o
 .debug_abbrev  0x000006e0      0x1c7 build/default/production/_ext/1865521619/plib_port.o
 .debug_abbrev  0x000008a7      0x1e6 build/default/production/_ext/829342655/plib_tc0.o
 .debug_abbrev  0x00000a8d       0xa6 build/default/production/_ext/1171490990/interrupts.o
 .debug_abbrev  0x00000b33       0xe9 build/default/production/_ext/1171490990/initialization.o
 .debug_abbrev  0x00000c1c       0x3e build/default/production/_ext/1171490990/exceptions.o
 .debug_abbrev  0x00000c5a      0x11f build/default/production/_ext/1171490990/startup_xc32.o
 .debug_abbrev  0x00000d79       0x53 build/default/production/_ext/1903470166/nonsecure_entry.o
 .debug_abbrev  0x00000dcc      0x290 build/default/production/_ext/1360937237/main.o
 .debug_abbrev  0x0000105c       0x2e /opt/microchip/xc32/v3.01/bin/bin/../../lib/gcc/pic32c/8.3.1/../../../../pic32c/lib/thumb/v8-m.base/nofp/libpic32c.a(data_init.o)
 .debug_abbrev  0x0000108a       0x14 /opt/microchip/xc32/v3.01/bin/bin/../../lib/gcc/pic32c/8.3.1/thumb/v8-m.base/nofp/libgcc.a(cmse_nonsecure_call.o)

.debug_aranges  0x00000000      0x360
 .debug_aranges
                0x00000000       0x20 build/default/production/_ext/1984496892/plib_clock.o
 .debug_aranges
                0x00000020       0x20 build/default/production/_ext/1986646378/plib_evsys.o
 .debug_aranges
                0x00000040       0x38 build/default/production/_ext/1865468468/plib_nvic.o
 .debug_aranges
                0x00000078       0x90 build/default/production/_ext/1593096446/plib_nvmctrl.o
 .debug_aranges
                0x00000108       0x40 build/default/production/_ext/829342769/plib_pm.o
 .debug_aranges
                0x00000148       0x70 build/default/production/_ext/1865521619/plib_port.o
 .debug_aranges
                0x000001b8       0x70 build/default/production/_ext/829342655/plib_tc0.o
 .debug_aranges
                0x00000228       0x20 build/default/production/_ext/1171490990/interrupts.o
 .debug_aranges
                0x00000248       0x20 build/default/production/_ext/1171490990/initialization.o
 .debug_aranges
                0x00000268       0x48 build/default/production/_ext/1171490990/exceptions.o
 .debug_aranges
                0x000002b0       0x28 build/default/production/_ext/1171490990/startup_xc32.o
 .debug_aranges
                0x000002d8       0x20 build/default/production/_ext/1903470166/nonsecure_entry.o
 .debug_aranges
                0x000002f8       0x28 build/default/production/_ext/1360937237/main.o
 .debug_aranges
                0x00000320       0x20 /opt/microchip/xc32/v3.01/bin/bin/../../lib/gcc/pic32c/8.3.1/../../../../pic32c/lib/thumb/v8-m.base/nofp/libpic32c.a(data_init.o)
 .debug_aranges
                0x00000340       0x20 /opt/microchip/xc32/v3.01/bin/bin/../../lib/gcc/pic32c/8.3.1/thumb/v8-m.base/nofp/libgcc.a(cmse_nonsecure_call.o)

.debug_ranges   0x00000000      0x260
 .debug_ranges  0x00000000       0x10 build/default/production/_ext/1984496892/plib_clock.o
 .debug_ranges  0x00000010       0x10 build/default/production/_ext/1986646378/plib_evsys.o
 .debug_ranges  0x00000020       0x28 build/default/production/_ext/1865468468/plib_nvic.o
 .debug_ranges  0x00000048       0x80 build/default/production/_ext/1593096446/plib_nvmctrl.o
 .debug_ranges  0x000000c8       0x30 build/default/production/_ext/829342769/plib_pm.o
 .debug_ranges  0x000000f8       0x60 build/default/production/_ext/1865521619/plib_port.o
 .debug_ranges  0x00000158       0x60 build/default/production/_ext/829342655/plib_tc0.o
 .debug_ranges  0x000001b8       0x10 build/default/production/_ext/1171490990/interrupts.o
 .debug_ranges  0x000001c8       0x10 build/default/production/_ext/1171490990/initialization.o
 .debug_ranges  0x000001d8       0x38 build/default/production/_ext/1171490990/exceptions.o
 .debug_ranges  0x00000210       0x18 build/default/production/_ext/1171490990/startup_xc32.o
 .debug_ranges  0x00000228       0x10 build/default/production/_ext/1903470166/nonsecure_entry.o
 .debug_ranges  0x00000238       0x18 build/default/production/_ext/1360937237/main.o
 .debug_ranges  0x00000250       0x10 /opt/microchip/xc32/v3.01/bin/bin/../../lib/gcc/pic32c/8.3.1/../../../../pic32c/lib/thumb/v8-m.base/nofp/libpic32c.a(data_init.o)

.debug_line     0x00000000     0x1d01
 .debug_line    0x00000000      0x244 build/default/production/_ext/1984496892/plib_clock.o
 .debug_line    0x00000244       0x66 build/default/production/_ext/1986646378/plib_evsys.o
 .debug_line    0x000002aa      0x2cc build/default/production/_ext/1865468468/plib_nvic.o
 .debug_line    0x00000576      0x44f build/default/production/_ext/1593096446/plib_nvmctrl.o
 .debug_line    0x000009c5      0x260 build/default/production/_ext/829342769/plib_pm.o
 .debug_line    0x00000c25      0x2bc build/default/production/_ext/1865521619/plib_port.o
 .debug_line    0x00000ee1      0x364 build/default/production/_ext/829342655/plib_tc0.o
 .debug_line    0x00001245       0xec build/default/production/_ext/1171490990/interrupts.o
 .debug_line    0x00001331      0x29b build/default/production/_ext/1171490990/initialization.o
 .debug_line    0x000015cc       0xc6 build/default/production/_ext/1171490990/exceptions.o
 .debug_line    0x00001692      0x17f build/default/production/_ext/1171490990/startup_xc32.o
 .debug_line    0x00001811       0x5f build/default/production/_ext/1903470166/nonsecure_entry.o
 .debug_line    0x00001870      0x2a7 build/default/production/_ext/1360937237/main.o
 .debug_line    0x00001b17      0x12d /opt/microchip/xc32/v3.01/bin/bin/../../lib/gcc/pic32c/8.3.1/../../../../pic32c/lib/thumb/v8-m.base/nofp/libpic32c.a(data_init.o)
 .debug_line    0x00001c44       0xbd /opt/microchip/xc32/v3.01/bin/bin/../../lib/gcc/pic32c/8.3.1/thumb/v8-m.base/nofp/libgcc.a(cmse_nonsecure_call.o)

.debug_str      0x00000000      0x304
 .debug_str     0x00000000       0x1e build/default/production/_ext/1984496892/plib_clock.o
 .debug_str     0x0000001e        0x0 build/default/production/_ext/1986646378/plib_evsys.o
 .debug_str     0x0000001e        0x0 build/default/production/_ext/1865468468/plib_nvic.o
 .debug_str     0x0000001e       0x26 build/default/production/_ext/1593096446/plib_nvmctrl.o
 .debug_str     0x00000044        0x0 build/default/production/_ext/829342769/plib_pm.o
 .debug_str     0x00000044        0xb build/default/production/_ext/1865521619/plib_port.o
 .debug_str     0x0000004f       0xcc build/default/production/_ext/829342655/plib_tc0.o
 .debug_str     0x0000011b        0x0 build/default/production/_ext/1171490990/interrupts.o
 .debug_str     0x0000011b       0x77 build/default/production/_ext/1171490990/initialization.o
 .debug_str     0x00000192        0x0 build/default/production/_ext/1171490990/exceptions.o
 .debug_str     0x00000192       0x2f build/default/production/_ext/1171490990/startup_xc32.o
 .debug_str     0x000001c1        0x0 build/default/production/_ext/1903470166/nonsecure_entry.o
 .debug_str     0x000001c1       0x46 build/default/production/_ext/1360937237/main.o
 .debug_str     0x00000207        0x0 /opt/microchip/xc32/v3.01/bin/bin/../../lib/gcc/pic32c/8.3.1/../../../../pic32c/lib/thumb/v8-m.base/nofp/libpic32c.a(data_init.o)
 .debug_str     0x00000207       0xfd /opt/microchip/xc32/v3.01/bin/bin/../../lib/gcc/pic32c/8.3.1/thumb/v8-m.base/nofp/libgcc.a(cmse_nonsecure_call.o)

.debug_frame    0x00000000      0x524
 .debug_frame   0x00000000       0x20 build/default/production/_ext/1984496892/plib_clock.o
 .debug_frame   0x00000020       0x20 build/default/production/_ext/1986646378/plib_evsys.o
 .debug_frame   0x00000040       0x50 build/default/production/_ext/1865468468/plib_nvic.o
 .debug_frame   0x00000090      0x120 build/default/production/_ext/1593096446/plib_nvmctrl.o
 .debug_frame   0x000001b0       0x60 build/default/production/_ext/829342769/plib_pm.o
 .debug_frame   0x00000210       0xcc build/default/production/_ext/1865521619/plib_port.o
 .debug_frame   0x000002dc       0xc8 build/default/production/_ext/829342655/plib_tc0.o
 .debug_frame   0x000003a4       0x20 build/default/production/_ext/1171490990/interrupts.o
 .debug_frame   0x000003c4       0x28 build/default/production/_ext/1171490990/initialization.o
 .debug_frame   0x000003ec       0x70 build/default/production/_ext/1171490990/exceptions.o
 .debug_frame   0x0000045c       0x38 build/default/production/_ext/1171490990/startup_xc32.o
 .debug_frame   0x00000494       0x20 build/default/production/_ext/1903470166/nonsecure_entry.o
 .debug_frame   0x000004b4       0x3c build/default/production/_ext/1360937237/main.o
 .debug_frame   0x000004f0       0x34 /opt/microchip/xc32/v3.01/bin/bin/../../lib/gcc/pic32c/8.3.1/../../../../pic32c/lib/thumb/v8-m.base/nofp/libpic32c.a(data_init.o)

.debug_loc      0x00000000      0x779
 .debug_loc     0x00000000       0x72 build/default/production/_ext/1865468468/plib_nvic.o
 .debug_loc     0x00000072      0x30b build/default/production/_ext/1593096446/plib_nvmctrl.o
 .debug_loc     0x0000037d       0x63 build/default/production/_ext/829342769/plib_pm.o
 .debug_loc     0x000003e0      0x226 build/default/production/_ext/1865521619/plib_port.o
 .debug_loc     0x00000606       0x5a build/default/production/_ext/829342655/plib_tc0.o
 .debug_loc     0x00000660       0x45 build/default/production/_ext/1171490990/initialization.o
 .debug_loc     0x000006a5       0x20 build/default/production/_ext/1171490990/startup_xc32.o
 .debug_loc     0x000006c5       0x4a build/default/production/_ext/1903470166/nonsecure_entry.o
 .debug_loc     0x0000070f       0x56 build/default/production/_ext/1360937237/main.o
 .debug_loc     0x00000765       0x14 /opt/microchip/xc32/v3.01/bin/bin/../../lib/gcc/pic32c/8.3.1/../../../../pic32c/lib/thumb/v8-m.base/nofp/libpic32c.a(data_init.o)

.stack          0x20000248      0x100
 .stack         0x20000248      0x100 stack

.bss%1          0x20000000       0x1c
 .bss           0x20000000       0x1c /opt/microchip/xc32/v3.01/bin/bin/../../lib/gcc/pic32c/8.3.1/thumb/v8-m.base/nofp/crtbegin.o

.bss.TC0_CallbackObject%2
                0x2000001c        0x8
 .bss.TC0_CallbackObject
                0x2000001c        0x8 build/default/production/_ext/829342655/plib_tc0.o

.bss%3          0x20000024        0x4
 .bss           0x20000024        0x4 /opt/microchip/xc32/v3.01/bin/bin/../../lib/gcc/pic32c/8.3.1/../../../../pic32c/lib/thumb/v8-m.base/nofp/libpic32c.a(data_init.o)

.bss.LEDstate%4
                0x20000028        0x1
 .bss.LEDstate  0x20000028        0x1 build/default/production/_ext/1360937237/main.o

.eh_frame%z1    0x00000000        0x0
 .eh_frame      0x00000000        0x0 /opt/microchip/xc32/v3.01/bin/bin/../../lib/gcc/pic32c/8.3.1/thumb/v8-m.base/nofp/crtbegin.o

.text.CLOCK_Initialize%5
                0x00000124       0xf0
 .text.CLOCK_Initialize
                0x00000124       0xf0 build/default/production/_ext/1984496892/plib_clock.o
                0x00000124                CLOCK_Initialize

.text.__pic32c_data_initialization%6
                0x00000214       0x94
 .text.__pic32c_data_initialization
                0x00000214       0x94 /opt/microchip/xc32/v3.01/bin/bin/../../lib/gcc/pic32c/8.3.1/../../../../pic32c/lib/thumb/v8-m.base/nofp/libpic32c.a(data_init.o)
                0x00000214                __pic32c_data_initialization

.text.main%7    0x000002a8       0x64
 .text.main     0x000002a8       0x64 build/default/production/_ext/1360937237/main.o
                0x000002a8                main

.text.TC0_TimerInitialize%8
                0x0000030c       0x54
 .text.TC0_TimerInitialize
                0x0000030c       0x54 build/default/production/_ext/829342655/plib_tc0.o
                0x0000030c                TC0_TimerInitialize

.text.Reset_Handler%9
                0x00000360       0x54
 .text.Reset_Handler
                0x00000360       0x54 build/default/production/_ext/1171490990/startup_xc32.o
                0x00000360                Reset_Handler

.text%10        0x000003b4       0x50
 .text          0x000003b4       0x50 /opt/microchip/xc32/v3.01/bin/bin/../../lib/gcc/pic32c/8.3.1/thumb/v8-m.base/nofp/crtbegin.o

.text.__libc_init_array%11
                0x00000404       0x50
 .text.__libc_init_array
                0x00000404       0x50 /opt/microchip/xc32/v3.01/bin/bin/../../lib/gcc/pic32c/8.3.1/../../../../pic32c/lib/thumb/v8-m.base/nofp/libc_nano.a(lib_a-init.o)
                0x00000404                __libc_init_array

.dinit%12       0x00000454       0x40
 .dinit         0x00000454       0x40 data_init

.text.PM_Initialize%13
                0x00000494       0x3a
 .text.PM_Initialize
                0x00000494       0x3a build/default/production/_ext/829342769/plib_pm.o
                0x00000494                PM_Initialize

.text.TC0_TimerInterruptHandler%14
                0x000004ce       0x3a
 .text.TC0_TimerInterruptHandler
                0x000004ce       0x3a build/default/production/_ext/829342655/plib_tc0.o
                0x000004ce                TC0_TimerInterruptHandler

.text%15        0x00000508       0x32
 .text          0x00000508       0x32 /opt/microchip/xc32/v3.01/bin/bin/../../lib/gcc/pic32c/8.3.1/thumb/v8-m.base/nofp/libgcc.a(cmse_nonsecure_call.o)
                0x00000508                __gnu_cmse_nonsecure_call

.text.NVIC_Initialize%16
                0x0000053c       0x2c
 .text.NVIC_Initialize
                0x0000053c       0x2c build/default/production/_ext/1865468468/plib_nvic.o
                0x0000053c                NVIC_Initialize

.text.SYS_Initialize%17
                0x00000568       0x2c
 .text.SYS_Initialize
                0x00000568       0x2c build/default/production/_ext/1171490990/initialization.o
                0x00000568                SYS_Initialize

.text.TC0_TimerStart%18
                0x00000594       0x20
 .text.TC0_TimerStart
                0x00000594       0x20 build/default/production/_ext/829342655/plib_tc0.o
                0x00000594                TC0_TimerStart

.text.PORT_Initialize%19
                0x000005b4       0x16
 .text.PORT_Initialize
                0x000005b4       0x16 build/default/production/_ext/1865521619/plib_port.o
                0x000005b4                PORT_Initialize

.text.NVMCTRL_Initialize%20
                0x000005ca       0x12
 .text.NVMCTRL_Initialize
                0x000005ca       0x12 build/default/production/_ext/1593096446/plib_nvmctrl.o
                0x000005ca                NVMCTRL_Initialize

.text.TC0_TimerCallbackRegister%21
                0x000005dc        0xe
 .text.TC0_TimerCallbackRegister
                0x000005dc        0xe build/default/production/_ext/829342655/plib_tc0.o
                0x000005dc                TC0_TimerCallbackRegister

.text.TC0_CH0_TimerInterruptHandler%22
                0x000005ea        0xe
 .text.TC0_CH0_TimerInterruptHandler
                0x000005ea        0xe build/default/production/_ext/1360937237/main.o
                0x000005ea                TC0_CH0_TimerInterruptHandler

.text.EVSYS_Initialize%23
                0x0000053a        0x2
 .text.EVSYS_Initialize
                0x0000053a        0x2 build/default/production/_ext/1986646378/plib_evsys.o
                0x0000053a                EVSYS_Initialize

.text.Dummy_Handler%24
                0x000005f8        0x2
 .text.Dummy_Handler
                0x000005f8        0x2 build/default/production/_ext/1171490990/interrupts.o
                0x000005f8                SVCall_Handler
                0x000005f8                SERCOM0_2_Handler
                0x000005f8                EVSYS_0_Handler
                0x000005f8                TRNG_Handler
                0x000005f8                ADC_RESRDY_Handler
                0x000005f8                TC2_Handler
                0x000005f8                AC_Handler
                0x000005f8                DMAC_OTHER_Handler
                0x000005f8                SysTick_Handler
                0x000005f8                PendSV_Handler
                0x000005f8                EVSYS_3_Handler
                0x000005f8                SERCOM0_OTHER_Handler
                0x000005f8                SERCOM0_0_Handler
                0x000005f8                RTC_Handler
                0x000005f8                SERCOM1_OTHER_Handler
                0x000005f8                EVSYS_1_Handler
                0x000005f8                DMAC_0_Handler
                0x000005f8                WDT_Handler
                0x000005f8                TRAM_Handler
                0x000005f8                EVSYS_NSCHK_Handler
                0x000005f8                EIC_EXTINT_1_Handler
                0x000005f8                TC1_Handler
                0x000005f8                EIC_EXTINT_0_Handler
                0x000005f8                DAC_EMPTY_Handler
                0x000005f8                PAC_Handler
                0x000005f8                Dummy_Handler
                0x000005f8                DMAC_2_Handler
                0x000005f8                SERCOM0_1_Handler
                0x000005f8                DMAC_1_Handler
                0x000005f8                EIC_EXTINT_2_Handler
                0x000005f8                SERCOM1_1_Handler
                0x000005f8                NVMCTRL_Handler
                0x000005f8                PORT_Handler
                0x000005f8                SYSTEM_Handler
                0x000005f8                SERCOM1_0_Handler
                0x000005f8                SERCOM2_1_Handler
                0x000005f8                SERCOM1_2_Handler
                0x000005f8                SERCOM2_2_Handler
                0x000005f8                EIC_EXTINT_3_Handler
                0x000005f8                PTC_Handler
                0x000005f8                EVSYS_2_Handler
                0x000005f8                SERCOM2_OTHER_Handler
                0x000005f8                FREQM_Handler
                0x000005f8                DAC_UNDERRUN_A_Handler
                0x000005f8                EIC_OTHER_Handler
                0x000005f8                ADC_OTHER_Handler
                0x000005f8                DMAC_3_Handler
                0x000005f8                SERCOM2_0_Handler

.text.NonMaskableInt_Handler%25
                0x000005fa        0x2
 .text.NonMaskableInt_Handler
                0x000005fa        0x2 build/default/production/_ext/1171490990/exceptions.o
                0x000005fa                NonMaskableInt_Handler

.text.HardFault_Handler%26
                0x000005fc        0x2
 .text.HardFault_Handler
                0x000005fc        0x2 build/default/production/_ext/1171490990/exceptions.o
                0x000005fc                HardFault_Handler

.text.Dummy_App_Func%27
                0x000005fe        0x2
 .text.Dummy_App_Func
                0x000005fe        0x2 build/default/production/_ext/1171490990/startup_xc32.o
                0x000005fe                __xc32_on_bootstrap
                0x000005fe                _on_reset
                0x000005fe                _on_bootstrap
                0x000005fe                __xc32_on_reset
                0x000005fe                Dummy_App_Func
